target datalayout = "e-m:e-p270:32:32-p271:32:32-p272:64:64-i64:64-i128:128-f80:128-n8:16:32:64-S128"
target triple = "x86_64-pc-linux-gnu"

%class.RelocationHolder = type { [40 x i8] }
%class.RelocIterator = type { ptr, ptr, ptr, ptr, ptr, i16, ptr, i16, [3 x ptr], [3 x ptr], %class.RelocationHolder }
%class.CodeBlob = type <{ ptr, ptr, ptr, i32, i32, i32, i32, i32, i32, i16, i16, i8, i8, [2 x i8] }>
%class.oop_Relocation = type { %class.DataRelocation.base, i32 }
%class.DataRelocation.base = type { %class.Relocation.base }
%class.Relocation.base = type <{ ptr, ptr, i32 }>
%class.Relocation = type <{ ptr, ptr, i32, [4 x i8] }>

; Function Attrs: mustprogress nounwind uwtable
define linkonce_odr hidden noundef ptr @_ZNK8CodeBlob12header_beginEv(ptr noundef nonnull align 8 dereferenceable(54) %0) #1 comdat align 2 {
  %2 = alloca ptr, align 8
  store ptr %0, ptr %2, align 8
  %3 = load ptr, ptr %2, align 8
  ret ptr %3
}

; Function Attrs: mustprogress nounwind uwtable
define linkonce_odr hidden noundef ptr @_ZNK8CodeBlob10data_beginEv(ptr noundef nonnull align 8 dereferenceable(54) %0) #1 comdat align 2 {
  %2 = alloca ptr, align 8
  store ptr %0, ptr %2, align 8
  %3 = load ptr, ptr %2, align 8
  %4 = call noundef ptr @_ZNK8CodeBlob12header_beginEv(ptr noundef nonnull align 8 dereferenceable(54) %3)
  %5 = getelementptr inbounds %class.CodeBlob, ptr %3, i32 0, i32 7
  %6 = load i32, ptr %5, align 8
  %7 = sext i32 %6 to i64
  %8 = getelementptr inbounds i8, ptr %4, i64 %7
  ret ptr %8
}

; Function Attrs: mustprogress nounwind uwtable
define linkonce_odr hidden noundef ptr @_ZNK7nmethod10oops_beginEv(ptr noundef nonnull align 8 dereferenceable(214) %0) #1 comdat align 2 {
  %2 = alloca ptr, align 8
  store ptr %0, ptr %2, align 8
  %3 = load ptr, ptr %2, align 8
  %4 = call noundef ptr @_ZNK8CodeBlob10data_beginEv(ptr noundef nonnull align 8 dereferenceable(54) %3)
  ret ptr %4
}

; Function Attrs: mustprogress nounwind uwtable
define linkonce_odr hidden noundef ptr @_ZNK13RelocIterator4codeEv(ptr noundef nonnull align 8 dereferenceable(152) %0) #1 comdat align 2 {
  %2 = alloca ptr, align 8
  store ptr %0, ptr %2, align 8
  %3 = load ptr, ptr %2, align 8
  %4 = getelementptr inbounds %class.RelocIterator, ptr %3, i32 0, i32 3
  %5 = load ptr, ptr %4, align 8
  ret ptr %5
}

; Function Attrs: mustprogress nounwind uwtable
define linkonce_odr hidden noundef ptr @_ZNK10Relocation7bindingEv(ptr noundef nonnull align 8 dereferenceable(20) %0) #1 comdat align 2 {
  %2 = alloca ptr, align 8
  store ptr %0, ptr %2, align 8
  %3 = load ptr, ptr %2, align 8
  %4 = getelementptr inbounds %class.Relocation, ptr %3, i32 0, i32 1
  %5 = load ptr, ptr %4, align 8
  ret ptr %5
}

; Function Attrs: mustprogress nounwind uwtable
define linkonce_odr hidden noundef ptr @_ZNK7nmethod11oop_addr_atEi(ptr noundef nonnull align 8 dereferenceable(214) %0, i32 noundef %1) #1 comdat align 2 {
  %3 = alloca ptr, align 8
  %4 = alloca i32, align 4
  store ptr %0, ptr %3, align 8
  store i32 %1, ptr %4, align 4
  %5 = load ptr, ptr %3, align 8
  %6 = call noundef ptr @_ZNK7nmethod10oops_beginEv(ptr noundef nonnull align 8 dereferenceable(214) %5)
  %7 = load i32, ptr %4, align 4
  %8 = sub nsw i32 %7, 1
  %9 = sext i32 %8 to i64
  %10 = getelementptr inbounds ptr, ptr %6, i64 %9
  ret ptr %10
}

; Function Attrs: mustprogress nounwind uwtable
define linkonce_odr hidden noundef ptr @_ZNK10Relocation4codeEv(ptr noundef nonnull align 8 dereferenceable(20) %0) #1 comdat align 2 {
  %2 = alloca ptr, align 8
  store ptr %0, ptr %2, align 8
  %3 = load ptr, ptr %2, align 8
  %4 = call noundef ptr @_ZNK10Relocation7bindingEv(ptr noundef nonnull align 8 dereferenceable(20) %3)
  %5 = call noundef ptr @_ZNK13RelocIterator4codeEv(ptr noundef nonnull align 8 dereferenceable(152) %4)
  ret ptr %5
}

; Function Attrs: mustprogress nounwind uwtable
define hidden noundef ptr @_ZN14oop_Relocation8oop_addrEv(ptr noundef nonnull align 8 dereferenceable(24) %0) #1 align 2 {
  %2 = alloca ptr, align 8
  %3 = alloca ptr, align 8
  %4 = alloca i32, align 4
  store ptr %0, ptr %3, align 8
  %5 = load ptr, ptr %3, align 8
  %6 = getelementptr inbounds %class.oop_Relocation, ptr %5, i32 0, i32 1
  %7 = load i32, ptr %6, align 4
  store i32 %7, ptr %4, align 4
  %8 = load i32, ptr %4, align 4
  %9 = icmp eq i32 %8, 0
  br i1 %9, label %10, label %12

10:                                               ; preds = %1
  %11 = call noundef ptr @_ZN10Relocation18pd_address_in_codeEv(ptr noundef nonnull align 8 dereferenceable(20) %5)
  store ptr %11, ptr %2, align 8
  br label %16

12:                                               ; preds = %1
  %13 = call noundef ptr @_ZNK10Relocation4codeEv(ptr noundef nonnull align 8 dereferenceable(20) %5)
  %14 = load i32, ptr %4, align 4
  %15 = call noundef ptr @_ZNK7nmethod11oop_addr_atEi(ptr noundef nonnull align 8 dereferenceable(214) %13, i32 noundef %14)
  store ptr %15, ptr %2, align 8
  br label %16

16:                                               ; preds = %12, %10
  %17 = load ptr, ptr %2, align 8
  ret ptr %17
}