; Function Attrs: mustprogress nounwind uwtable
define hidden noundef ptr @_ZN14oop_Relocation8oop_addrEv(ptr noundef nonnull align 8 dereferenceable(24) %0) local_unnamed_addr #0 align 2 {
  %2 = getelementptr inbounds i8, ptr %0, i64 20
  %3 = load i32, ptr %2, align 4
  %4 = icmp eq i32 %3, 0
  br i1 %4, label %5, label %7

5:                                                ; preds = %1
  %6 = tail call noundef ptr @_ZN10Relocation18pd_address_in_codeEv(ptr noundef nonnull align 8 dereferenceable(20) %0) #19
  br label %19

7:                                                ; preds = %1
  %8 = getelementptr inbounds i8, ptr %0, i64 8
  %9 = load ptr, ptr %8, align 8
  %10 = getelementptr inbounds i8, ptr %9, i64 24
  %11 = load ptr, ptr %10, align 8
  %12 = getelementptr inbounds i8, ptr %11, i64 40
  %13 = load i32, ptr %12, align 8
  %14 = sext i32 %13 to i64
  %15 = getelementptr inbounds i8, ptr %11, i64 %14
  %16 = sext i32 %3 to i64
  %17 = getelementptr ptr, ptr %15, i64 %16
  %18 = getelementptr i8, ptr %17, i64 -8
  br label %19

19:                                               ; preds = %7, %5
  %.0 = phi ptr [ %6, %5 ], [ %18, %7 ]
  ret ptr %.0
}